target datalayout = "e-m:e-p270:32:32-p271:32:32-p272:64:64-i64:64-i128:128-f80:128-n8:16:32:64-S128"
target triple = "x86_64-pc-linux-gnu"

%"struct.llvm::ARM::ArchNames" = type { %"class.llvm::StringRef", %"class.llvm::StringRef", %"class.llvm::StringRef", i32, i64, i32, i32 }
%"class.llvm::StringRef" = type { ptr, i64 }

; Function Attrs: mustprogress nounwind uwtable
define dso_local { ptr, i64 } @_ZN4llvm3ARM11getArchNameENS0_8ArchKindE(i32 noundef %0) #0 {
  %2 = alloca %"class.llvm::StringRef", align 8
  %3 = alloca i32, align 4
  store i32 %0, ptr %3, align 4
  %4 = load i32, ptr %3, align 4
  %5 = zext i32 %4 to i64
  %6 = getelementptr inbounds [41 x %"struct.llvm::ARM::ArchNames"], ptr @_ZN4llvm3ARML12ARMArchNamesE, i64 0, i64 %5
  %7 = getelementptr inbounds nuw %"struct.llvm::ARM::ArchNames", ptr %6, i32 0, i32 0
  call void @llvm.memcpy.p0.p0.i64(ptr align 8 %2, ptr align 8 %7, i64 16, i1 false)
  %8 = load { ptr, i64 }, ptr %2, align 8
  ret { ptr, i64 } %8
}