; Function Attrs: mustprogress nofree norecurse nosync nounwind willreturn memory(none) uwtable
define dso_local { ptr, i64 } @_ZN4llvm3ARM11getArchNameENS0_8ArchKindE(i32 noundef %0) local_unnamed_addr #5 {
  %2 = zext i32 %0 to i64
  %3 = getelementptr inbounds [41 x %"struct.llvm::ARM::ArchNames"], ptr @_ZN4llvm3ARML12ARMArchNamesE, i64 0, i64 %2
  %.sroa.0.0.copyload = load ptr, ptr %3, align 8
  %.sroa.2.0..sroa_idx = getelementptr inbounds i8, ptr %3, i64 8
  %.sroa.2.0.copyload = load i64, ptr %.sroa.2.0..sroa_idx, align 8
  %.fca.0.insert = insertvalue { ptr, i64 } poison, ptr %.sroa.0.0.copyload, 0
  %.fca.1.insert = insertvalue { ptr, i64 } %.fca.0.insert, i64 %.sroa.2.0.copyload, 1
  ret { ptr, i64 } %.fca.1.insert
}